; Function Attrs: mustprogress nofree norecurse nosync nounwind willreturn memory(argmem: write) uwtable
define void @_ZN5Ipopt14IndexSchurDataC2Ev(ptr noundef nonnull writeonly align 8 captures(none) dereferenceable(72) initializes((0, 13), (16, 20), (24, 72)) %0) unnamed_addr #0 align 2 {
  %2 = getelementptr inbounds nuw i8, ptr %0, i64 8
  store i32 0, ptr %2, align 8, !tbaa !3
  %3 = getelementptr inbounds nuw i8, ptr %0, i64 12
  store i8 0, ptr %3, align 4, !tbaa !8
  %4 = getelementptr inbounds nuw i8, ptr %0, i64 16
  store i32 0, ptr %4, align 8, !tbaa !11
  store ptr getelementptr inbounds nuw inrange(-16, 136) (i8, ptr @_ZTVN5Ipopt14IndexSchurDataE, i64 16), ptr %0, align 8, !tbaa !12
  %5 = getelementptr inbounds nuw i8, ptr %0, i64 24
  tail call void @llvm.memset.p0.i64(ptr noundef nonnull align 8 dereferenceable(48) %5, i8 0, i64 48, i1 false)
  ret void
}